target datalayout = "e-m:e-p270:32:32-p271:32:32-p272:64:64-i64:64-i128:128-f80:128-n8:16:32:64-S128"
target triple = "x86_64-pc-linux-gnu"

%struct.xlist = type { i32, i32, ptr, ptr, ptr, ptr, %union.pthread_rwlock_t, ptr, ptr, [0 x %struct.listNode] }
%union.pthread_rwlock_t = type { %struct.__pthread_rwlock_arch_t }
%struct.__pthread_rwlock_arch_t = type { i32, i32, i32, i32, i32, i32, i32, i32, i8, [7 x i8], i64, i32 }
%struct.listNode = type { ptr, ptr }
%struct.listIterator = type { i32, ptr, ptr, ptr, ptr }

@.str.2 = private unnamed_addr constant [32 x i8] c"%s: pthread_rwlock_wrlock(): %m\00", align 1
@.str.3 = private unnamed_addr constant [32 x i8] c"%s: pthread_rwlock_unlock(): %m\00", align 1
@__func__.list_flip = private unnamed_addr constant [10 x i8] c"list_flip\00", align 1

; Function Attrs: nounwind uwtable
define dso_local void @list_flip(ptr noundef %0) #0 {
  %2 = alloca ptr, align 8
  %3 = alloca ptr, align 8
  %4 = alloca ptr, align 8
  %5 = alloca ptr, align 8
  %6 = alloca ptr, align 8
  %7 = alloca ptr, align 8
  %8 = alloca i32, align 4
  %9 = alloca i32, align 4
  %10 = alloca i32, align 4
  %11 = alloca i32, align 4
  store ptr %0, ptr %2, align 8
  call void @llvm.lifetime.start.p0(i64 8, ptr %3) #6
  call void @llvm.lifetime.start.p0(i64 8, ptr %4) #6
  store ptr null, ptr %4, align 8
  call void @llvm.lifetime.start.p0(i64 8, ptr %5) #6
  call void @llvm.lifetime.start.p0(i64 8, ptr %6) #6
  store ptr null, ptr %6, align 8
  call void @llvm.lifetime.start.p0(i64 8, ptr %7) #6
  br label %12

12:                                               ; preds = %1
  call void @llvm.lifetime.start.p0(i64 4, ptr %8) #6
  %13 = load ptr, ptr %2, align 8
  %14 = getelementptr inbounds nuw %struct.xlist, ptr %13, i32 0, i32 6
  %15 = call i32 @pthread_rwlock_wrlock(ptr noundef %14) #6
  store i32 %15, ptr %8, align 4
  %16 = load i32, ptr %8, align 4
  %17 = icmp ne i32 %16, 0
  br i1 %17, label %18, label %21

18:                                               ; preds = %12
  %19 = load i32, ptr %8, align 4
  %20 = call ptr @__errno_location() #7
  store i32 %19, ptr %20, align 4
  call void (ptr, ...) @fatal_abort(ptr noundef @.str.2, ptr noundef @__func__.list_flip) #8
  unreachable

21:                                               ; preds = %12
  call void @llvm.lifetime.end.p0(i64 4, ptr %8) #6
  br label %22

22:                                               ; preds = %21
  br label %23

23:                                               ; preds = %22
  %24 = load ptr, ptr %2, align 8
  %25 = getelementptr inbounds nuw %struct.xlist, ptr %24, i32 0, i32 1
  %26 = load i32, ptr %25, align 4
  %27 = icmp sle i32 %26, 1
  br i1 %27, label %28, label %41

28:                                               ; preds = %23
  br label %29

29:                                               ; preds = %28
  call void @llvm.lifetime.start.p0(i64 4, ptr %9) #6
  %30 = load ptr, ptr %2, align 8
  %31 = getelementptr inbounds nuw %struct.xlist, ptr %30, i32 0, i32 6
  %32 = call i32 @pthread_rwlock_unlock(ptr noundef %31) #6
  store i32 %32, ptr %9, align 4
  %33 = load i32, ptr %9, align 4
  %34 = icmp ne i32 %33, 0
  br i1 %34, label %35, label %38

35:                                               ; preds = %29
  %36 = load i32, ptr %9, align 4
  %37 = call ptr @__errno_location() #7
  store i32 %36, ptr %37, align 4
  call void (ptr, ...) @fatal_abort(ptr noundef @.str.3, ptr noundef @__func__.list_flip) #8
  unreachable

38:                                               ; preds = %29
  call void @llvm.lifetime.end.p0(i64 4, ptr %9) #6
  br label %39

39:                                               ; preds = %38
  br label %40

40:                                               ; preds = %39
  store i32 1, ptr %10, align 4
  br label %102

41:                                               ; preds = %23
  %42 = load ptr, ptr %2, align 8
  %43 = getelementptr inbounds nuw %struct.xlist, ptr %42, i32 0, i32 2
  %44 = load ptr, ptr %43, align 8
  store ptr %44, ptr %5, align 8
  store ptr %44, ptr %3, align 8
  br label %45

45:                                               ; preds = %48, %41
  %46 = load ptr, ptr %5, align 8
  %47 = icmp ne ptr %46, null
  br i1 %47, label %48, label %57

48:                                               ; preds = %45
  %49 = load ptr, ptr %5, align 8
  %50 = getelementptr inbounds nuw %struct.listNode, ptr %49, i32 0, i32 1
  %51 = load ptr, ptr %50, align 8
  store ptr %51, ptr %6, align 8
  %52 = load ptr, ptr %4, align 8
  %53 = load ptr, ptr %5, align 8
  %54 = getelementptr inbounds nuw %struct.listNode, ptr %53, i32 0, i32 1
  store ptr %52, ptr %54, align 8
  %55 = load ptr, ptr %5, align 8
  store ptr %55, ptr %4, align 8
  %56 = load ptr, ptr %6, align 8
  store ptr %56, ptr %5, align 8
  br label %45, !llvm.loop !27

57:                                               ; preds = %45
  %58 = load ptr, ptr %4, align 8
  %59 = load ptr, ptr %2, align 8
  %60 = getelementptr inbounds nuw %struct.xlist, ptr %59, i32 0, i32 2
  store ptr %58, ptr %60, align 8
  %61 = load ptr, ptr %3, align 8
  %62 = getelementptr inbounds nuw %struct.listNode, ptr %61, i32 0, i32 1
  %63 = load ptr, ptr %2, align 8
  %64 = getelementptr inbounds nuw %struct.xlist, ptr %63, i32 0, i32 3
  store ptr %62, ptr %64, align 8
  %65 = load ptr, ptr %2, align 8
  %66 = getelementptr inbounds nuw %struct.xlist, ptr %65, i32 0, i32 4
  %67 = load ptr, ptr %66, align 8
  store ptr %67, ptr %7, align 8
  br label %68

68:                                               ; preds = %85, %57
  %69 = load ptr, ptr %7, align 8
  %70 = icmp ne ptr %69, null
  br i1 %70, label %71, label %89

71:                                               ; preds = %68
  %72 = load ptr, ptr %7, align 8
  %73 = getelementptr inbounds nuw %struct.listIterator, ptr %72, i32 0, i32 1
  %74 = load ptr, ptr %73, align 8
  %75 = getelementptr inbounds nuw %struct.xlist, ptr %74, i32 0, i32 2
  %76 = load ptr, ptr %75, align 8
  %77 = load ptr, ptr %7, align 8
  %78 = getelementptr inbounds nuw %struct.listIterator, ptr %77, i32 0, i32 2
  store ptr %76, ptr %78, align 8
  %79 = load ptr, ptr %7, align 8
  %80 = getelementptr inbounds nuw %struct.listIterator, ptr %79, i32 0, i32 1
  %81 = load ptr, ptr %80, align 8
  %82 = getelementptr inbounds nuw %struct.xlist, ptr %81, i32 0, i32 2
  %83 = load ptr, ptr %7, align 8
  %84 = getelementptr inbounds nuw %struct.listIterator, ptr %83, i32 0, i32 3
  store ptr %82, ptr %84, align 8
  br label %85

85:                                               ; preds = %71
  %86 = load ptr, ptr %7, align 8
  %87 = getelementptr inbounds nuw %struct.listIterator, ptr %86, i32 0, i32 4
  %88 = load ptr, ptr %87, align 8
  store ptr %88, ptr %7, align 8
  br label %68, !llvm.loop !28

89:                                               ; preds = %68
  br label %90

90:                                               ; preds = %89
  call void @llvm.lifetime.start.p0(i64 4, ptr %11) #6
  %91 = load ptr, ptr %2, align 8
  %92 = getelementptr inbounds nuw %struct.xlist, ptr %91, i32 0, i32 6
  %93 = call i32 @pthread_rwlock_unlock(ptr noundef %92) #6
  store i32 %93, ptr %11, align 4
  %94 = load i32, ptr %11, align 4
  %95 = icmp ne i32 %94, 0
  br i1 %95, label %96, label %99

96:                                               ; preds = %90
  %97 = load i32, ptr %11, align 4
  %98 = call ptr @__errno_location() #7
  store i32 %97, ptr %98, align 4
  call void (ptr, ...) @fatal_abort(ptr noundef @.str.3, ptr noundef @__func__.list_flip) #8
  unreachable

99:                                               ; preds = %90
  call void @llvm.lifetime.end.p0(i64 4, ptr %11) #6
  br label %100

100:                                              ; preds = %99
  br label %101

101:                                              ; preds = %100
  store i32 0, ptr %10, align 4
  br label %102

102:                                              ; preds = %101, %40
  call void @llvm.lifetime.end.p0(i64 8, ptr %7) #6
  call void @llvm.lifetime.end.p0(i64 8, ptr %6) #6
  call void @llvm.lifetime.end.p0(i64 8, ptr %5) #6
  call void @llvm.lifetime.end.p0(i64 8, ptr %4) #6
  call void @llvm.lifetime.end.p0(i64 8, ptr %3) #6
  %103 = load i32, ptr %10, align 4
  switch i32 %103, label %105 [
    i32 0, label %104
    i32 1, label %104
  ]

104:                                              ; preds = %102, %102
  ret void

105:                                              ; preds = %102
  unreachable
}