; Function Attrs: nounwind uwtable
define dso_local void @list_flip(ptr noundef %0) #0 {
  %2 = getelementptr inbounds nuw i8, ptr %0, i64 40
  %3 = tail call i32 @pthread_rwlock_wrlock(ptr noundef nonnull %2) #9
  %.not = icmp eq i32 %3, 0
  br i1 %.not, label %6, label %4

4:                                                ; preds = %1
  %5 = tail call ptr @__errno_location() #10
  store i32 %3, ptr %5, align 4
  tail call void (ptr, ...) @fatal_abort(ptr noundef nonnull @.str.2, ptr noundef nonnull @__func__.list_flip) #11
  unreachable

6:                                                ; preds = %1
  %7 = getelementptr inbounds nuw i8, ptr %0, i64 4
  %8 = load i32, ptr %7, align 4
  %9 = icmp slt i32 %8, 2
  br i1 %9, label %10, label %14

10:                                               ; preds = %6
  %11 = tail call i32 @pthread_rwlock_unlock(ptr noundef nonnull %2) #9
  %.not35 = icmp eq i32 %11, 0
  br i1 %.not35, label %32, label %12

12:                                               ; preds = %10
  %13 = tail call ptr @__errno_location() #10
  store i32 %11, ptr %13, align 4
  tail call void (ptr, ...) @fatal_abort(ptr noundef nonnull @.str.3, ptr noundef nonnull @__func__.list_flip) #11
  unreachable

14:                                               ; preds = %6
  %15 = getelementptr inbounds nuw i8, ptr %0, i64 8
  %16 = load ptr, ptr %15, align 8
  %.not3236 = icmp eq ptr %16, null
  br i1 %.not3236, label %._crit_edge, label %.lr.ph

.lr.ph:                                           ; preds = %14, %.lr.ph
  %.038 = phi ptr [ %.02737, %.lr.ph ], [ null, %14 ]
  %.02737 = phi ptr [ %18, %.lr.ph ], [ %16, %14 ]
  %17 = getelementptr inbounds nuw i8, ptr %.02737, i64 8
  %18 = load ptr, ptr %17, align 8
  store ptr %.038, ptr %17, align 8
  %.not32 = icmp eq ptr %18, null
  br i1 %.not32, label %._crit_edge, label %.lr.ph, !llvm.loop !28

._crit_edge:                                      ; preds = %.lr.ph, %14
  %.0.lcssa = phi ptr [ null, %14 ], [ %.02737, %.lr.ph ]
  store ptr %.0.lcssa, ptr %15, align 8
  %19 = getelementptr inbounds nuw i8, ptr %16, i64 8
  %20 = getelementptr inbounds nuw i8, ptr %0, i64 16
  store ptr %19, ptr %20, align 8
  %21 = getelementptr inbounds nuw i8, ptr %0, i64 24
  %.02839 = load ptr, ptr %21, align 8
  %.not3340 = icmp eq ptr %.02839, null
  br i1 %.not3340, label %._crit_edge44, label %.lr.ph43

.lr.ph43:                                         ; preds = %._crit_edge, %.lr.ph43
  %.02841 = phi ptr [ %.028, %.lr.ph43 ], [ %.02839, %._crit_edge ]
  %22 = getelementptr inbounds nuw i8, ptr %.02841, i64 8
  %23 = load ptr, ptr %22, align 8
  %24 = getelementptr inbounds nuw i8, ptr %23, i64 8
  %25 = load ptr, ptr %24, align 8
  %26 = getelementptr inbounds nuw i8, ptr %.02841, i64 16
  store ptr %25, ptr %26, align 8
  %27 = getelementptr inbounds nuw i8, ptr %.02841, i64 24
  store ptr %24, ptr %27, align 8
  %28 = getelementptr inbounds nuw i8, ptr %.02841, i64 32
  %.028 = load ptr, ptr %28, align 8
  %.not33 = icmp eq ptr %.028, null
  br i1 %.not33, label %._crit_edge44, label %.lr.ph43, !llvm.loop !29

._crit_edge44:                                    ; preds = %.lr.ph43, %._crit_edge
  %29 = tail call i32 @pthread_rwlock_unlock(ptr noundef nonnull %2) #9
  %.not34 = icmp eq i32 %29, 0
  br i1 %.not34, label %32, label %30

30:                                               ; preds = %._crit_edge44
  %31 = tail call ptr @__errno_location() #10
  store i32 %29, ptr %31, align 4
  tail call void (ptr, ...) @fatal_abort(ptr noundef nonnull @.str.3, ptr noundef nonnull @__func__.list_flip) #11
  unreachable

32:                                               ; preds = %._crit_edge44, %10
  ret void
}